target datalayout = "e-m:e-p270:32:32-p271:32:32-p272:64:64-i64:64-i128:128-f80:128-n8:16:32:64-S128"
target triple = "x86_64-pc-linux-gnu"

%"class.duckdb::Vector" = type { i8, %"struct.duckdb::LogicalType", ptr, %"struct.duckdb::ValidityMask", %"class.duckdb::shared_ptr.11", %"class.duckdb::shared_ptr.11" }
%"struct.duckdb::LogicalType" = type { i8, i8, %"class.duckdb::shared_ptr" }
%"class.duckdb::shared_ptr" = type { %"class.std::shared_ptr" }
%"class.std::shared_ptr" = type { %"class.std::__shared_ptr" }
%"class.std::__shared_ptr" = type { ptr, %"class.std::__shared_count" }
%"class.std::__shared_count" = type { ptr }
%"struct.duckdb::ValidityMask" = type { %"struct.duckdb::TemplatedValidityMask" }
%"struct.duckdb::TemplatedValidityMask" = type { ptr, %"class.duckdb::shared_ptr.7", i64 }
%"class.duckdb::shared_ptr.7" = type { %"class.std::shared_ptr.8" }
%"class.std::shared_ptr.8" = type { %"class.std::__shared_ptr.9" }
%"class.std::__shared_ptr.9" = type { ptr, %"class.std::__shared_count" }
%"class.duckdb::shared_ptr.11" = type { %"class.std::shared_ptr.12" }
%"class.std::shared_ptr.12" = type { %"class.std::__shared_ptr.13" }
%"class.std::__shared_ptr.13" = type { ptr, %"class.std::__shared_count" }
%"class.duckdb::ColumnWriterStatistics" = type { ptr }
%"struct.duckdb::hugeint_t" = type { i64, i64 }
%"class.duckdb::FixedDecimalStatistics" = type { %"class.duckdb::ColumnWriterStatistics", %"struct.duckdb::hugeint_t", %"struct.duckdb::hugeint_t" }

; Function Attrs: inlinehint mustprogress nounwind uwtable
define linkonce_odr noundef nonnull align 8 dereferenceable(8) ptr @_ZNK6duckdb21TemplatedValidityMaskImE22GetValidityEntryUnsafeEm(ptr noundef nonnull align 8 dereferenceable(32) %0, i64 noundef %1) #3 comdat align 2 {
  %3 = alloca ptr, align 8
  %4 = alloca i64, align 8
  store ptr %0, ptr %3, align 8, !tbaa !91
  store i64 %1, ptr %4, align 8, !tbaa !12
  %5 = load ptr, ptr %3, align 8
  %6 = getelementptr inbounds nuw %"struct.duckdb::TemplatedValidityMask", ptr %5, i32 0, i32 0
  %7 = load ptr, ptr %6, align 8, !tbaa !93
  %8 = load i64, ptr %4, align 8, !tbaa !12
  %9 = getelementptr inbounds nuw i64, ptr %7, i64 %8
  ret ptr %9
}

; Function Attrs: mustprogress nounwind uwtable
define linkonce_odr noundef zeroext i1 @_ZN6duckdb7Hugeint11GreaterThanENS_9hugeint_tES1_(i64 %0, i64 %1, i64 %2, i64 %3) #5 comdat align 2 {
  %5 = alloca %"struct.duckdb::hugeint_t", align 8
  %6 = alloca %"struct.duckdb::hugeint_t", align 8
  %7 = alloca i32, align 4
  %8 = alloca i32, align 4
  %9 = alloca i32, align 4
  %10 = getelementptr inbounds nuw { i64, i64 }, ptr %5, i32 0, i32 0
  store i64 %0, ptr %10, align 8
  %11 = getelementptr inbounds nuw { i64, i64 }, ptr %5, i32 0, i32 1
  store i64 %1, ptr %11, align 8
  %12 = getelementptr inbounds nuw { i64, i64 }, ptr %6, i32 0, i32 0
  store i64 %2, ptr %12, align 8
  %13 = getelementptr inbounds nuw { i64, i64 }, ptr %6, i32 0, i32 1
  store i64 %3, ptr %13, align 8
  call void @llvm.lifetime.start.p0(i64 4, ptr %7) #19
  %14 = getelementptr inbounds nuw %"struct.duckdb::hugeint_t", ptr %5, i32 0, i32 1
  %15 = load i64, ptr %14, align 8, !tbaa !163
  %16 = getelementptr inbounds nuw %"struct.duckdb::hugeint_t", ptr %6, i32 0, i32 1
  %17 = load i64, ptr %16, align 8, !tbaa !163
  %18 = icmp sgt i64 %15, %17
  %19 = zext i1 %18 to i32
  store i32 %19, ptr %7, align 4, !tbaa !195
  call void @llvm.lifetime.start.p0(i64 4, ptr %8) #19
  %20 = getelementptr inbounds nuw %"struct.duckdb::hugeint_t", ptr %5, i32 0, i32 1
  %21 = load i64, ptr %20, align 8, !tbaa !163
  %22 = getelementptr inbounds nuw %"struct.duckdb::hugeint_t", ptr %6, i32 0, i32 1
  %23 = load i64, ptr %22, align 8, !tbaa !163
  %24 = icmp eq i64 %21, %23
  %25 = zext i1 %24 to i32
  store i32 %25, ptr %8, align 4, !tbaa !195
  call void @llvm.lifetime.start.p0(i64 4, ptr %9) #19
  %26 = getelementptr inbounds nuw %"struct.duckdb::hugeint_t", ptr %5, i32 0, i32 0
  %27 = load i64, ptr %26, align 8, !tbaa !165
  %28 = getelementptr inbounds nuw %"struct.duckdb::hugeint_t", ptr %6, i32 0, i32 0
  %29 = load i64, ptr %28, align 8, !tbaa !165
  %30 = icmp ugt i64 %27, %29
  %31 = zext i1 %30 to i32
  store i32 %31, ptr %9, align 4, !tbaa !195
  %32 = load i32, ptr %7, align 4, !tbaa !195
  %33 = load i32, ptr %8, align 4, !tbaa !195
  %34 = load i32, ptr %9, align 4, !tbaa !195
  %35 = and i32 %33, %34
  %36 = or i32 %32, %35
  %37 = icmp ne i32 %36, 0
  call void @llvm.lifetime.end.p0(i64 4, ptr %9) #19
  call void @llvm.lifetime.end.p0(i64 4, ptr %8) #19
  call void @llvm.lifetime.end.p0(i64 4, ptr %7) #19
  ret i1 %37
}

; Function Attrs: inlinehint mustprogress nounwind uwtable
define linkonce_odr noundef zeroext i1 @_ZN6duckdb21TemplatedValidityMaskImE10RowIsValidERKmS3_(ptr noundef nonnull align 8 dereferenceable(8) %0, ptr noundef nonnull align 8 dereferenceable(8) %1) #3 comdat align 2 {
  %3 = alloca ptr, align 8
  %4 = alloca ptr, align 8
  store ptr %0, ptr %3, align 8, !tbaa !366
  store ptr %1, ptr %4, align 8, !tbaa !366
  %5 = load ptr, ptr %3, align 8, !tbaa !366
  %6 = load i64, ptr %5, align 8, !tbaa !12
  %7 = load ptr, ptr %4, align 8, !tbaa !366
  %8 = load i64, ptr %7, align 8, !tbaa !12
  %9 = shl i64 1, %8
  %10 = and i64 %6, %9
  %11 = icmp ne i64 %10, 0
  ret i1 %11
}

; Function Attrs: inlinehint mustprogress uwtable
define linkonce_odr noundef i64 @_ZNK6duckdb21TemplatedValidityMaskImE16GetValidityEntryEm(ptr noundef nonnull align 8 dereferenceable(32) %0, i64 noundef %1) #4 comdat align 2 {
  %3 = alloca i64, align 8
  %4 = alloca ptr, align 8
  %5 = alloca i64, align 8
  store ptr %0, ptr %4, align 8, !tbaa !91
  store i64 %1, ptr %5, align 8, !tbaa !12
  %6 = load ptr, ptr %4, align 8
  %7 = getelementptr inbounds nuw %"struct.duckdb::TemplatedValidityMask", ptr %6, i32 0, i32 0
  %8 = load ptr, ptr %7, align 8, !tbaa !93
  %9 = icmp ne ptr %8, null
  br i1 %9, label %11, label %10

10:                                               ; preds = %2
  store i64 -1, ptr %3, align 8
  br label %15

11:                                               ; preds = %2
  %12 = load i64, ptr %5, align 8, !tbaa !12
  %13 = call noundef nonnull align 8 dereferenceable(8) ptr @_ZNK6duckdb21TemplatedValidityMaskImE22GetValidityEntryUnsafeEm(ptr noundef nonnull align 8 dereferenceable(32) %6, i64 noundef %12)
  %14 = load i64, ptr %13, align 8, !tbaa !12
  store i64 %14, ptr %3, align 8
  br label %15

15:                                               ; preds = %11, %10
  %16 = load i64, ptr %3, align 8
  ret i64 %16
}

; Function Attrs: inlinehint mustprogress nounwind uwtable
define linkonce_odr void @_ZN6duckdb21TemplatedValidityMaskImE13GetEntryIndexEmRmS2_(i64 noundef %0, ptr noundef nonnull align 8 dereferenceable(8) %1, ptr noundef nonnull align 8 dereferenceable(8) %2) #3 comdat align 2 {
  %4 = alloca i64, align 8
  %5 = alloca ptr, align 8
  %6 = alloca ptr, align 8
  store i64 %0, ptr %4, align 8, !tbaa !12
  store ptr %1, ptr %5, align 8, !tbaa !366
  store ptr %2, ptr %6, align 8, !tbaa !366
  %7 = load i64, ptr %4, align 8, !tbaa !12
  %8 = udiv i64 %7, 64
  %9 = load ptr, ptr %5, align 8, !tbaa !366
  store i64 %8, ptr %9, align 8, !tbaa !12
  %10 = load i64, ptr %4, align 8, !tbaa !12
  %11 = urem i64 %10, 64
  %12 = load ptr, ptr %6, align 8, !tbaa !366
  store i64 %11, ptr %12, align 8, !tbaa !12
  ret void
}

; Function Attrs: inlinehint mustprogress nounwind uwtable
define linkonce_odr noundef ptr @_ZN6duckdb14ConstantVector7GetDataERNS_6VectorE(ptr noundef nonnull align 8 dereferenceable(104) %0) #3 comdat align 2 {
  %2 = alloca ptr, align 8
  store ptr %0, ptr %2, align 8, !tbaa !10
  %3 = load ptr, ptr %2, align 8, !tbaa !10
  %4 = getelementptr inbounds nuw %"class.duckdb::Vector", ptr %3, i32 0, i32 2
  %5 = load ptr, ptr %4, align 8, !tbaa !1067
  ret ptr %5
}

; Function Attrs: inlinehint mustprogress uwtable
define linkonce_odr noundef zeroext i1 @_ZN6duckdb11GreaterThan9OperationINS_9hugeint_tEEEbRKT_S5_(ptr noundef nonnull align 8 dereferenceable(16) %0, ptr noundef nonnull align 8 dereferenceable(16) %1) #4 comdat align 2 {
  %3 = alloca ptr, align 8
  %4 = alloca ptr, align 8
  %5 = alloca %"struct.duckdb::hugeint_t", align 8
  %6 = alloca %"struct.duckdb::hugeint_t", align 8
  store ptr %0, ptr %3, align 8, !tbaa !157
  store ptr %1, ptr %4, align 8, !tbaa !157
  %7 = load ptr, ptr %3, align 8, !tbaa !157
  call void @llvm.memcpy.p0.p0.i64(ptr align 8 %5, ptr align 8 %7, i64 16, i1 false), !tbaa.struct !159
  %8 = load ptr, ptr %4, align 8, !tbaa !157
  call void @llvm.memcpy.p0.p0.i64(ptr align 8 %6, ptr align 8 %8, i64 16, i1 false), !tbaa.struct !159
  %9 = getelementptr inbounds nuw { i64, i64 }, ptr %5, i32 0, i32 0
  %10 = load i64, ptr %9, align 8
  %11 = getelementptr inbounds nuw { i64, i64 }, ptr %5, i32 0, i32 1
  %12 = load i64, ptr %11, align 8
  %13 = getelementptr inbounds nuw { i64, i64 }, ptr %6, i32 0, i32 0
  %14 = load i64, ptr %13, align 8
  %15 = getelementptr inbounds nuw { i64, i64 }, ptr %6, i32 0, i32 1
  %16 = load i64, ptr %15, align 8
  %17 = call noundef zeroext i1 @_ZN6duckdb7Hugeint11GreaterThanENS_9hugeint_tES1_(i64 %10, i64 %12, i64 %14, i64 %16)
  ret i1 %17
}

; Function Attrs: inlinehint mustprogress uwtable
define linkonce_odr noundef zeroext i1 @_ZN6duckdb8LessThan9OperationINS_9hugeint_tEEEbRKT_S5_(ptr noundef nonnull align 8 dereferenceable(16) %0, ptr noundef nonnull align 8 dereferenceable(16) %1) #4 comdat align 2 {
  %3 = alloca ptr, align 8
  %4 = alloca ptr, align 8
  store ptr %0, ptr %3, align 8, !tbaa !157
  store ptr %1, ptr %4, align 8, !tbaa !157
  %5 = load ptr, ptr %4, align 8, !tbaa !157
  %6 = load ptr, ptr %3, align 8, !tbaa !157
  %7 = call noundef zeroext i1 @_ZN6duckdb11GreaterThan9OperationINS_9hugeint_tEEEbRKT_S5_(ptr noundef nonnull align 8 dereferenceable(16) %5, ptr noundef nonnull align 8 dereferenceable(16) %6)
  ret i1 %7
}

; Function Attrs: inlinehint mustprogress uwtable
define linkonce_odr noundef zeroext i1 @_ZNK6duckdb21TemplatedValidityMaskImE16RowIsValidUnsafeEm(ptr noundef nonnull align 8 dereferenceable(32) %0, i64 noundef %1) #4 comdat align 2 {
  %3 = alloca ptr, align 8
  %4 = alloca i64, align 8
  %5 = alloca i64, align 8
  %6 = alloca i64, align 8
  %7 = alloca i64, align 8
  store ptr %0, ptr %3, align 8, !tbaa !91
  store i64 %1, ptr %4, align 8, !tbaa !12
  %8 = load ptr, ptr %3, align 8
  call void @llvm.lifetime.start.p0(i64 8, ptr %5) #19
  call void @llvm.lifetime.start.p0(i64 8, ptr %6) #19
  %9 = load i64, ptr %4, align 8, !tbaa !12
  call void @_ZN6duckdb21TemplatedValidityMaskImE13GetEntryIndexEmRmS2_(i64 noundef %9, ptr noundef nonnull align 8 dereferenceable(8) %5, ptr noundef nonnull align 8 dereferenceable(8) %6)
  call void @llvm.lifetime.start.p0(i64 8, ptr %7) #19
  %10 = load i64, ptr %5, align 8, !tbaa !12
  %11 = call noundef i64 @_ZNK6duckdb21TemplatedValidityMaskImE16GetValidityEntryEm(ptr noundef nonnull align 8 dereferenceable(32) %8, i64 noundef %10)
  store i64 %11, ptr %7, align 8, !tbaa !12
  %12 = call noundef zeroext i1 @_ZN6duckdb21TemplatedValidityMaskImE10RowIsValidERKmS3_(ptr noundef nonnull align 8 dereferenceable(8) %7, ptr noundef nonnull align 8 dereferenceable(8) %6)
  call void @llvm.lifetime.end.p0(i64 8, ptr %7) #19
  call void @llvm.lifetime.end.p0(i64 8, ptr %6) #19
  call void @llvm.lifetime.end.p0(i64 8, ptr %5) #19
  ret i1 %12
}

; Function Attrs: mustprogress nounwind uwtable
define linkonce_odr void @_ZN6duckdb16DynamicCastCheckINS_22FixedDecimalStatisticsENS_22ColumnWriterStatisticsEEEvPKT0_(ptr noundef %0) #5 comdat {
  %2 = alloca ptr, align 8
  store ptr %0, ptr %2, align 8, !tbaa !122
  ret void
}

; Function Attrs: inlinehint mustprogress nounwind uwtable
define linkonce_odr noundef ptr @_ZN6duckdb14ConstantVector7GetDataINS_9hugeint_tEEEPT_RNS_6VectorE(ptr noundef nonnull align 8 dereferenceable(104) %0) #3 comdat align 2 {
  %2 = alloca ptr, align 8
  store ptr %0, ptr %2, align 8, !tbaa !10
  %3 = load ptr, ptr %2, align 8, !tbaa !10
  %4 = call noundef ptr @_ZN6duckdb14ConstantVector7GetDataERNS_6VectorE(ptr noundef nonnull align 8 dereferenceable(104) %3)
  ret ptr %4
}

; Function Attrs: mustprogress uwtable
define linkonce_odr void @_ZN6duckdb22FixedDecimalStatistics6UpdateERNS_9hugeint_tE(ptr noundef nonnull align 8 dereferenceable(40) %0, ptr noundef nonnull align 8 dereferenceable(16) %1) #0 comdat align 2 {
  %3 = alloca ptr, align 8
  %4 = alloca ptr, align 8
  store ptr %0, ptr %3, align 8, !tbaa !155
  store ptr %1, ptr %4, align 8, !tbaa !157
  %5 = load ptr, ptr %3, align 8
  %6 = load ptr, ptr %4, align 8, !tbaa !157
  %7 = getelementptr inbounds nuw %"class.duckdb::FixedDecimalStatistics", ptr %5, i32 0, i32 1
  %8 = call noundef zeroext i1 @_ZN6duckdb8LessThan9OperationINS_9hugeint_tEEEbRKT_S5_(ptr noundef nonnull align 8 dereferenceable(16) %6, ptr noundef nonnull align 8 dereferenceable(16) %7)
  br i1 %8, label %9, label %12

9:                                                ; preds = %2
  %10 = load ptr, ptr %4, align 8, !tbaa !157
  %11 = getelementptr inbounds nuw %"class.duckdb::FixedDecimalStatistics", ptr %5, i32 0, i32 1
  call void @llvm.memcpy.p0.p0.i64(ptr align 8 %11, ptr align 8 %10, i64 16, i1 false), !tbaa.struct !159
  br label %12

12:                                               ; preds = %9, %2
  %13 = load ptr, ptr %4, align 8, !tbaa !157
  %14 = getelementptr inbounds nuw %"class.duckdb::FixedDecimalStatistics", ptr %5, i32 0, i32 2
  %15 = call noundef zeroext i1 @_ZN6duckdb11GreaterThan9OperationINS_9hugeint_tEEEbRKT_S5_(ptr noundef nonnull align 8 dereferenceable(16) %13, ptr noundef nonnull align 8 dereferenceable(16) %14)
  br i1 %15, label %16, label %19

16:                                               ; preds = %12
  %17 = load ptr, ptr %4, align 8, !tbaa !157
  %18 = getelementptr inbounds nuw %"class.duckdb::FixedDecimalStatistics", ptr %5, i32 0, i32 2
  call void @llvm.memcpy.p0.p0.i64(ptr align 8 %18, ptr align 8 %17, i64 16, i1 false), !tbaa.struct !159
  br label %19

19:                                               ; preds = %16, %12
  ret void
}

; Function Attrs: inlinehint mustprogress uwtable
define linkonce_odr noundef zeroext i1 @_ZNK6duckdb21TemplatedValidityMaskImE10RowIsValidEm(ptr noundef nonnull align 8 dereferenceable(32) %0, i64 noundef %1) #4 comdat align 2 {
  %3 = alloca i1, align 1
  %4 = alloca ptr, align 8
  %5 = alloca i64, align 8
  store ptr %0, ptr %4, align 8, !tbaa !91
  store i64 %1, ptr %5, align 8, !tbaa !12
  %6 = load ptr, ptr %4, align 8
  %7 = getelementptr inbounds nuw %"struct.duckdb::TemplatedValidityMask", ptr %6, i32 0, i32 0
  %8 = load ptr, ptr %7, align 8, !tbaa !93
  %9 = icmp ne ptr %8, null
  br i1 %9, label %11, label %10

10:                                               ; preds = %2
  store i1 true, ptr %3, align 1
  br label %14

11:                                               ; preds = %2
  %12 = load i64, ptr %5, align 8, !tbaa !12
  %13 = call noundef zeroext i1 @_ZNK6duckdb21TemplatedValidityMaskImE16RowIsValidUnsafeEm(ptr noundef nonnull align 8 dereferenceable(32) %6, i64 noundef %12)
  store i1 %13, ptr %3, align 1
  br label %14

14:                                               ; preds = %11, %10
  %15 = load i1, ptr %3, align 1
  ret i1 %15
}

; Function Attrs: mustprogress uwtable
define linkonce_odr noundef nonnull align 8 dereferenceable(40) ptr @_ZN6duckdb22ColumnWriterStatistics4CastINS_22FixedDecimalStatisticsEEERT_v(ptr noundef nonnull align 8 dereferenceable(8) %0) #0 comdat align 2 {
  %2 = alloca ptr, align 8
  store ptr %0, ptr %2, align 8, !tbaa !122
  %3 = load ptr, ptr %2, align 8
  call void @_ZN6duckdb16DynamicCastCheckINS_22FixedDecimalStatisticsENS_22ColumnWriterStatisticsEEEvPKT0_(ptr noundef %3)
  ret ptr %3
}

; Function Attrs: inlinehint mustprogress uwtable
define linkonce_odr noundef ptr @_ZN6duckdb10FlatVector7GetDataINS_9hugeint_tEEEPT_RNS_6VectorE(ptr noundef nonnull align 8 dereferenceable(104) %0) #4 comdat align 2 {
  %2 = alloca ptr, align 8
  store ptr %0, ptr %2, align 8, !tbaa !10
  %3 = load ptr, ptr %2, align 8, !tbaa !10
  %4 = call noundef ptr @_ZN6duckdb14ConstantVector7GetDataINS_9hugeint_tEEEPT_RNS_6VectorE(ptr noundef nonnull align 8 dereferenceable(104) %3)
  ret ptr %4
}

; Function Attrs: inlinehint mustprogress uwtable
define linkonce_odr noundef nonnull align 8 dereferenceable(32) ptr @_ZN6duckdb10FlatVector8ValidityERNS_6VectorE(ptr noundef nonnull align 8 dereferenceable(104) %0) #4 comdat align 2 {
  %2 = alloca ptr, align 8
  store ptr %0, ptr %2, align 8, !tbaa !10
  %3 = load ptr, ptr %2, align 8, !tbaa !10
  call void @_ZN6duckdb10FlatVector16VerifyFlatVectorERKNS_6VectorE(ptr noundef nonnull align 8 dereferenceable(104) %3)
  %4 = load ptr, ptr %2, align 8, !tbaa !10
  %5 = getelementptr inbounds nuw %"class.duckdb::Vector", ptr %4, i32 0, i32 3
  ret ptr %5
}

; Function Attrs: mustprogress uwtable
define void @_ZN6duckdb24FixedDecimalColumnWriter11WriteVectorERNS_11WriteStreamEPNS_22ColumnWriterStatisticsEPNS_21ColumnWriterPageStateERNS_6VectorEmm(ptr noundef nonnull align 8 dereferenceable(65) %0, ptr noundef nonnull align 8 dereferenceable(8) %1, ptr noundef %2, ptr noundef %3, ptr noundef nonnull align 8 dereferenceable(104) %4, i64 noundef %5, i64 noundef %6) unnamed_addr #0 align 2 {
  %8 = alloca ptr, align 8
  %9 = alloca ptr, align 8
  %10 = alloca ptr, align 8
  %11 = alloca ptr, align 8
  %12 = alloca ptr, align 8
  %13 = alloca i64, align 8
  %14 = alloca i64, align 8
  %15 = alloca ptr, align 8
  %16 = alloca ptr, align 8
  %17 = alloca ptr, align 8
  %18 = alloca [16 x i8], align 16
  %19 = alloca i64, align 8
  %20 = alloca %"struct.duckdb::hugeint_t", align 8
  store ptr %0, ptr %8, align 8, !tbaa !149
  store ptr %1, ptr %9, align 8, !tbaa !120
  store ptr %2, ptr %10, align 8, !tbaa !122
  store ptr %3, ptr %11, align 8, !tbaa !124
  store ptr %4, ptr %12, align 8, !tbaa !10
  store i64 %5, ptr %13, align 8, !tbaa !12
  store i64 %6, ptr %14, align 8, !tbaa !12
  call void @llvm.lifetime.start.p0(i64 8, ptr %15) #19
  %21 = load ptr, ptr %12, align 8, !tbaa !10
  %22 = call noundef nonnull align 8 dereferenceable(32) ptr @_ZN6duckdb10FlatVector8ValidityERNS_6VectorE(ptr noundef nonnull align 8 dereferenceable(104) %21)
  store ptr %22, ptr %15, align 8, !tbaa !24
  call void @llvm.lifetime.start.p0(i64 8, ptr %16) #19
  %23 = load ptr, ptr %12, align 8, !tbaa !10
  %24 = call noundef ptr @_ZN6duckdb10FlatVector7GetDataINS_9hugeint_tEEEPT_RNS_6VectorE(ptr noundef nonnull align 8 dereferenceable(104) %23)
  store ptr %24, ptr %16, align 8, !tbaa !157
  call void @llvm.lifetime.start.p0(i64 8, ptr %17) #19
  %25 = load ptr, ptr %10, align 8, !tbaa !122
  %26 = call noundef nonnull align 8 dereferenceable(40) ptr @_ZN6duckdb22ColumnWriterStatistics4CastINS_22FixedDecimalStatisticsEEERT_v(ptr noundef nonnull align 8 dereferenceable(8) %25)
  store ptr %26, ptr %17, align 8, !tbaa !155
  call void @llvm.lifetime.start.p0(i64 16, ptr %18) #19
  call void @llvm.lifetime.start.p0(i64 8, ptr %19) #19
  %27 = load i64, ptr %13, align 8, !tbaa !12
  store i64 %27, ptr %19, align 8, !tbaa !12
  br label %28

28:                                               ; preds = %56, %7
  %29 = load i64, ptr %19, align 8, !tbaa !12
  %30 = load i64, ptr %14, align 8, !tbaa !12
  %31 = icmp ult i64 %29, %30
  br i1 %31, label %33, label %32

32:                                               ; preds = %28
  call void @llvm.lifetime.end.p0(i64 8, ptr %19) #19
  br label %59

33:                                               ; preds = %28
  %34 = load ptr, ptr %15, align 8, !tbaa !24
  %35 = load i64, ptr %19, align 8, !tbaa !12
  %36 = call noundef zeroext i1 @_ZNK6duckdb21TemplatedValidityMaskImE10RowIsValidEm(ptr noundef nonnull align 8 dereferenceable(32) %34, i64 noundef %35)
  br i1 %36, label %37, label %55

37:                                               ; preds = %33
  %38 = load ptr, ptr %17, align 8, !tbaa !155
  %39 = load ptr, ptr %16, align 8, !tbaa !157
  %40 = load i64, ptr %19, align 8, !tbaa !12
  %41 = getelementptr inbounds nuw %"struct.duckdb::hugeint_t", ptr %39, i64 %40
  call void @_ZN6duckdb22FixedDecimalStatistics6UpdateERNS_9hugeint_tE(ptr noundef nonnull align 8 dereferenceable(40) %38, ptr noundef nonnull align 8 dereferenceable(16) %41)
  %42 = load ptr, ptr %16, align 8, !tbaa !157
  %43 = load i64, ptr %19, align 8, !tbaa !12
  %44 = getelementptr inbounds nuw %"struct.duckdb::hugeint_t", ptr %42, i64 %43
  call void @llvm.memcpy.p0.p0.i64(ptr align 8 %20, ptr align 8 %44, i64 16, i1 false), !tbaa.struct !159
  %45 = getelementptr inbounds [16 x i8], ptr %18, i64 0, i64 0
  %46 = getelementptr inbounds nuw { i64, i64 }, ptr %20, i32 0, i32 0
  %47 = load i64, ptr %46, align 8
  %48 = getelementptr inbounds nuw { i64, i64 }, ptr %20, i32 0, i32 1
  %49 = load i64, ptr %48, align 8
  call void @_ZN6duckdbL19WriteParquetDecimalENS_9hugeint_tEPh(i64 %47, i64 %49, ptr noundef %45)
  %50 = load ptr, ptr %9, align 8, !tbaa !120
  %51 = getelementptr inbounds [16 x i8], ptr %18, i64 0, i64 0
  %52 = load ptr, ptr %50, align 8, !tbaa !16
  %53 = getelementptr inbounds ptr, ptr %52, i64 0
  %54 = load ptr, ptr %53, align 8
  call void %54(ptr noundef nonnull align 8 dereferenceable(8) %50, ptr noundef %51, i64 noundef 16)
  br label %55

55:                                               ; preds = %37, %33
  br label %56

56:                                               ; preds = %55
  %57 = load i64, ptr %19, align 8, !tbaa !12
  %58 = add i64 %57, 1
  store i64 %58, ptr %19, align 8, !tbaa !12
  br label %28, !llvm.loop !160

59:                                               ; preds = %32
  call void @llvm.lifetime.end.p0(i64 16, ptr %18) #19
  call void @llvm.lifetime.end.p0(i64 8, ptr %17) #19
  call void @llvm.lifetime.end.p0(i64 8, ptr %16) #19
  call void @llvm.lifetime.end.p0(i64 8, ptr %15) #19
  ret void
}