; Function Attrs: mustprogress uwtable
define void @_ZN6duckdb24FixedDecimalColumnWriter11WriteVectorERNS_11WriteStreamEPNS_22ColumnWriterStatisticsEPNS_21ColumnWriterPageStateERNS_6VectorEmm(ptr nonnull readnone align 8 captures(none) %0, ptr noundef nonnull align 8 dereferenceable(8) %1, ptr noundef captures(none) %2, ptr readnone captures(none) %3, ptr noundef nonnull align 8 dereferenceable(104) %4, i64 noundef %5, i64 noundef %6) unnamed_addr #0 align 2 {
  %8 = alloca [16 x i8], align 16
  tail call void @_ZN6duckdb10FlatVector16VerifyFlatVectorERKNS_6VectorE(ptr noundef nonnull align 8 dereferenceable(104) %4)
  %9 = getelementptr inbounds nuw i8, ptr %4, i64 40
  %10 = getelementptr inbounds nuw i8, ptr %4, i64 32
  %11 = load ptr, ptr %10, align 8, !tbaa !93
  call void @llvm.lifetime.start.p0(i64 16, ptr nonnull %8) #25
  %12 = icmp ult i64 %5, %6
  br i1 %12, label %.lr.ph, label %._crit_edge

.lr.ph:                                           ; preds = %7
  %13 = getelementptr inbounds nuw i8, ptr %2, i64 8
  %.sroa.22.0..sroa_idx.i.i.i = getelementptr inbounds nuw i8, ptr %2, i64 16
  %14 = getelementptr inbounds nuw i8, ptr %2, i64 24
  %.sroa.2.0..sroa_idx.i.i = getelementptr inbounds nuw i8, ptr %2, i64 32
  br label %15

._crit_edge:                                      ; preds = %39, %7
  call void @llvm.lifetime.end.p0(i64 16, ptr nonnull %8) #25
  ret void

15:                                               ; preds = %.lr.ph, %39
  %.015 = phi i64 [ %5, %.lr.ph ], [ %40, %39 ]
  %16 = load ptr, ptr %9, align 8, !tbaa !67
  %.not.i = icmp eq ptr %16, null
  br i1 %.not.i, label %_ZNK6duckdb21TemplatedValidityMaskImE10RowIsValidEm.exit.thread, label %_ZNK6duckdb21TemplatedValidityMaskImE10RowIsValidEm.exit

_ZNK6duckdb21TemplatedValidityMaskImE10RowIsValidEm.exit: ; preds = %15
  %17 = lshr i64 %.015, 6
  %18 = getelementptr inbounds nuw i64, ptr %16, i64 %17
  %19 = load i64, ptr %18, align 8, !tbaa !59
  %20 = and i64 %.015, 63
  %21 = shl nuw i64 1, %20
  %22 = and i64 %19, %21
  %.not = icmp eq i64 %22, 0
  br i1 %.not, label %39, label %_ZNK6duckdb21TemplatedValidityMaskImE10RowIsValidEm.exit.thread

_ZNK6duckdb21TemplatedValidityMaskImE10RowIsValidEm.exit.thread: ; preds = %15, %_ZNK6duckdb21TemplatedValidityMaskImE10RowIsValidEm.exit
  %23 = getelementptr inbounds nuw %"struct.duckdb::hugeint_t", ptr %11, i64 %.015
  %.sroa.01.0.copyload.i.i.i = load i64, ptr %13, align 8, !tbaa !59
  %.sroa.22.0.copyload.i.i.i = load i64, ptr %.sroa.22.0..sroa_idx.i.i.i, align 8, !tbaa !59
  %.sroa.0.0.copyload.i.i.i = load i64, ptr %23, align 8, !tbaa !59
  %.sroa.2.0..sroa_idx.i.i.i = getelementptr inbounds nuw i8, ptr %23, i64 8
  %.sroa.2.0.copyload.i.i.i = load i64, ptr %.sroa.2.0..sroa_idx.i.i.i, align 8, !tbaa !59
  %24 = icmp sgt i64 %.sroa.22.0.copyload.i.i.i, %.sroa.2.0.copyload.i.i.i
  %25 = icmp eq i64 %.sroa.22.0.copyload.i.i.i, %.sroa.2.0.copyload.i.i.i
  %26 = icmp ugt i64 %.sroa.01.0.copyload.i.i.i, %.sroa.0.0.copyload.i.i.i
  %27 = and i1 %26, %25
  %28 = or i1 %24, %27
  br i1 %28, label %29, label %30

29:                                               ; preds = %_ZNK6duckdb21TemplatedValidityMaskImE10RowIsValidEm.exit.thread
  call void @llvm.memcpy.p0.p0.i64(ptr noundef nonnull align 8 dereferenceable(16) %13, ptr noundef nonnull align 8 dereferenceable(16) %23, i64 16, i1 false), !tbaa.struct !127
  %.sroa.01.0.copyload.i.pre.i = load i64, ptr %23, align 8, !tbaa !59
  %.sroa.22.0.copyload.i.pre.i = load i64, ptr %.sroa.2.0..sroa_idx.i.i.i, align 8, !tbaa !59
  br label %30

30:                                               ; preds = %29, %_ZNK6duckdb21TemplatedValidityMaskImE10RowIsValidEm.exit.thread
  %.sroa.22.0.copyload.i.i = phi i64 [ %.sroa.22.0.copyload.i.pre.i, %29 ], [ %.sroa.2.0.copyload.i.i.i, %_ZNK6duckdb21TemplatedValidityMaskImE10RowIsValidEm.exit.thread ]
  %.sroa.01.0.copyload.i.i = phi i64 [ %.sroa.01.0.copyload.i.pre.i, %29 ], [ %.sroa.0.0.copyload.i.i.i, %_ZNK6duckdb21TemplatedValidityMaskImE10RowIsValidEm.exit.thread ]
  %.sroa.0.0.copyload.i.i = load i64, ptr %14, align 8, !tbaa !59
  %.sroa.2.0.copyload.i.i = load i64, ptr %.sroa.2.0..sroa_idx.i.i, align 8, !tbaa !59
  %31 = icmp sgt i64 %.sroa.22.0.copyload.i.i, %.sroa.2.0.copyload.i.i
  %32 = icmp eq i64 %.sroa.22.0.copyload.i.i, %.sroa.2.0.copyload.i.i
  %33 = icmp ugt i64 %.sroa.01.0.copyload.i.i, %.sroa.0.0.copyload.i.i
  %34 = and i1 %33, %32
  %35 = or i1 %31, %34
  br i1 %35, label %36, label %_ZN6duckdb22FixedDecimalStatistics6UpdateERNS_9hugeint_tE.exit

36:                                               ; preds = %30
  call void @llvm.memcpy.p0.p0.i64(ptr noundef nonnull align 8 dereferenceable(16) %14, ptr noundef nonnull align 8 dereferenceable(16) %23, i64 16, i1 false), !tbaa.struct !127
  %.sroa.0.0.copyload.pre = load i64, ptr %23, align 8, !tbaa !59
  %.sroa.2.0.copyload.pre = load i64, ptr %.sroa.2.0..sroa_idx.i.i.i, align 8, !tbaa !59
  br label %_ZN6duckdb22FixedDecimalStatistics6UpdateERNS_9hugeint_tE.exit

_ZN6duckdb22FixedDecimalStatistics6UpdateERNS_9hugeint_tE.exit: ; preds = %30, %36
  %.sroa.2.0.copyload = phi i64 [ %.sroa.22.0.copyload.i.i, %30 ], [ %.sroa.2.0.copyload.pre, %36 ]
  %.sroa.0.0.copyload = phi i64 [ %.sroa.01.0.copyload.i.i, %30 ], [ %.sroa.0.0.copyload.pre, %36 ]
  call fastcc void @_ZN6duckdbL19WriteParquetDecimalENS_9hugeint_tEPh(i64 %.sroa.0.0.copyload, i64 %.sroa.2.0.copyload, ptr noundef %8)
  %37 = load ptr, ptr %1, align 8, !tbaa !3
  %38 = load ptr, ptr %37, align 8
  call void %38(ptr noundef nonnull align 8 dereferenceable(8) %1, ptr noundef nonnull %8, i64 noundef 16)
  br label %39

39:                                               ; preds = %_ZNK6duckdb21TemplatedValidityMaskImE10RowIsValidEm.exit, %_ZN6duckdb22FixedDecimalStatistics6UpdateERNS_9hugeint_tE.exit
  %40 = add i64 %.015, 1
  %exitcond.not = icmp eq i64 %40, %6
  br i1 %exitcond.not, label %._crit_edge, label %15, !llvm.loop !128
}